; Function Attrs: nounwind uwtable
define hidden void @lexbor_dobject_clean(ptr noundef %0) local_unnamed_addr #0 {
  %.not = icmp eq ptr %0, null
  br i1 %.not, label %7, label %2

2:                                                ; preds = %1
  %3 = getelementptr inbounds i8, ptr %0, i64 16
  store i64 0, ptr %3, align 8
  %4 = load ptr, ptr %0, align 8
  tail call void @lexbor_mem_clean(ptr noundef %4) #6
  %5 = getelementptr inbounds i8, ptr %0, i64 8
  %6 = load ptr, ptr %5, align 8
  tail call void @lexbor_array_clean(ptr noundef %6) #6
  br label %7

7:                                                ; preds = %2, %1
  ret void
}